target datalayout = "e-m:e-p270:32:32-p271:32:32-p272:64:64-i64:64-i128:128-f80:128-n8:16:32:64-S128"
target triple = "x86_64-pc-linux-gnu"

%"class.llvm::StringRef" = type { ptr, i64 }
%"class.clang::HeaderSearch" = type { %"class.std::shared_ptr", %"class.llvm::DenseMap", ptr, ptr, %"class.std::vector", %"class.std::vector.0", i32, i32, %"class.llvm::StringMap", i32, %"class.std::vector.11", %"class.std::__cxx11::basic_string", %"class.std::__cxx11::basic_string", %"class.std::vector.19", %"class.llvm::StringMap.24", %"class.llvm::StringMap.25", %"class.std::unique_ptr", %"class.std::vector.28", %"class.clang::ModuleMap", %"class.llvm::DenseMap.90", %"class.llvm::DenseMap.87", %"class.llvm::DenseMap.93", %"class.llvm::StringSet", ptr, ptr }
%"class.std::shared_ptr" = type { %"class.std::__shared_ptr" }
%"class.std::__shared_ptr" = type { ptr, %"class.std::__shared_count" }
%"class.std::__shared_count" = type { ptr }
%"class.llvm::DenseMap" = type <{ ptr, i32, i32, i32, [4 x i8] }>
%"class.std::vector" = type { %"struct.std::_Vector_base" }
%"struct.std::_Vector_base" = type { %"struct.std::_Vector_base<clang::DirectoryLookup, std::allocator<clang::DirectoryLookup>>::_Vector_impl" }
%"struct.std::_Vector_base<clang::DirectoryLookup, std::allocator<clang::DirectoryLookup>>::_Vector_impl" = type { %"struct.std::_Vector_base<clang::DirectoryLookup, std::allocator<clang::DirectoryLookup>>::_Vector_impl_data" }
%"struct.std::_Vector_base<clang::DirectoryLookup, std::allocator<clang::DirectoryLookup>>::_Vector_impl_data" = type { ptr, ptr, ptr }
%"class.std::vector.0" = type { %"struct.std::_Bvector_base" }
%"struct.std::_Bvector_base" = type { %"struct.std::_Bvector_base<std::allocator<bool>>::_Bvector_impl" }
%"struct.std::_Bvector_base<std::allocator<bool>>::_Bvector_impl" = type { %"struct.std::_Bvector_base<std::allocator<bool>>::_Bvector_impl_data" }
%"struct.std::_Bvector_base<std::allocator<bool>>::_Bvector_impl_data" = type { %"struct.std::_Bit_iterator", %"struct.std::_Bit_iterator", ptr }
%"struct.std::_Bit_iterator" = type { %"struct.std::_Bit_iterator_base.base", [4 x i8] }
%"struct.std::_Bit_iterator_base.base" = type <{ ptr, i32 }>
%"class.llvm::StringMap" = type { %"class.llvm::StringMapImpl", %"class.llvm::detail::AllocatorHolder" }
%"class.llvm::StringMapImpl" = type { ptr, i32, i32, i32, i32 }
%"class.llvm::detail::AllocatorHolder" = type { %"class.llvm::BumpPtrAllocatorImpl" }
%"class.llvm::BumpPtrAllocatorImpl" = type { ptr, ptr, %"class.llvm::SmallVector", %"class.llvm::SmallVector.6", i64, i64 }
%"class.llvm::SmallVector" = type { %"class.llvm::SmallVectorImpl", %"struct.llvm::SmallVectorStorage" }
%"class.llvm::SmallVectorImpl" = type { %"class.llvm::SmallVectorTemplateBase" }
%"class.llvm::SmallVectorTemplateBase" = type { %"class.llvm::SmallVectorTemplateCommon" }
%"class.llvm::SmallVectorTemplateCommon" = type { %"class.llvm::SmallVectorBase" }
%"class.llvm::SmallVectorBase" = type { ptr, i32, i32 }
%"struct.llvm::SmallVectorStorage" = type { [32 x i8] }
%"class.llvm::SmallVector.6" = type { %"class.llvm::SmallVectorImpl.7" }
%"class.llvm::SmallVectorImpl.7" = type { %"class.llvm::SmallVectorTemplateBase.8" }
%"class.llvm::SmallVectorTemplateBase.8" = type { %"class.llvm::SmallVectorTemplateCommon.9" }
%"class.llvm::SmallVectorTemplateCommon.9" = type { %"class.llvm::SmallVectorBase" }
%"class.std::vector.11" = type { %"struct.std::_Vector_base.12" }
%"struct.std::_Vector_base.12" = type { %"struct.std::_Vector_base<std::pair<std::__cxx11::basic_string<char>, bool>, std::allocator<std::pair<std::__cxx11::basic_string<char>, bool>>>::_Vector_impl" }
%"struct.std::_Vector_base<std::pair<std::__cxx11::basic_string<char>, bool>, std::allocator<std::pair<std::__cxx11::basic_string<char>, bool>>>::_Vector_impl" = type { %"struct.std::_Vector_base<std::pair<std::__cxx11::basic_string<char>, bool>, std::allocator<std::pair<std::__cxx11::basic_string<char>, bool>>>::_Vector_impl_data" }
%"struct.std::_Vector_base<std::pair<std::__cxx11::basic_string<char>, bool>, std::allocator<std::pair<std::__cxx11::basic_string<char>, bool>>>::_Vector_impl_data" = type { ptr, ptr, ptr }
%"class.std::__cxx11::basic_string" = type { %"struct.std::__cxx11::basic_string<char>::_Alloc_hider", i64, %union.anon }
%"struct.std::__cxx11::basic_string<char>::_Alloc_hider" = type { ptr }
%union.anon = type { i64, [8 x i8] }
%"class.std::vector.19" = type { %"struct.std::_Vector_base.20" }
%"struct.std::_Vector_base.20" = type { %"struct.std::_Vector_base<clang::HeaderFileInfo, std::allocator<clang::HeaderFileInfo>>::_Vector_impl" }
%"struct.std::_Vector_base<clang::HeaderFileInfo, std::allocator<clang::HeaderFileInfo>>::_Vector_impl" = type { %"struct.std::_Vector_base<clang::HeaderFileInfo, std::allocator<clang::HeaderFileInfo>>::_Vector_impl_data" }
%"struct.std::_Vector_base<clang::HeaderFileInfo, std::allocator<clang::HeaderFileInfo>>::_Vector_impl_data" = type { ptr, ptr, ptr }
%"class.llvm::StringMap.24" = type { %"class.llvm::StringMapImpl", %"class.llvm::detail::AllocatorHolder" }
%"class.llvm::StringMap.25" = type { %"class.llvm::StringMapImpl", %"class.llvm::detail::AllocatorHolder" }
%"class.std::unique_ptr" = type { %"struct.std::__uniq_ptr_data" }
%"struct.std::__uniq_ptr_data" = type { %"class.std::__uniq_ptr_impl" }
%"class.std::__uniq_ptr_impl" = type { %"class.std::tuple" }
%"class.std::tuple" = type { %"struct.std::_Tuple_impl" }
%"struct.std::_Tuple_impl" = type { %"struct.std::_Head_base.27" }
%"struct.std::_Head_base.27" = type { ptr }
%"class.std::vector.28" = type { %"struct.std::_Vector_base.29" }
%"struct.std::_Vector_base.29" = type { %"struct.std::_Vector_base<std::pair<clang::FileEntryRef, std::unique_ptr<clang::HeaderMap>>, std::allocator<std::pair<clang::FileEntryRef, std::unique_ptr<clang::HeaderMap>>>>::_Vector_impl" }
%"struct.std::_Vector_base<std::pair<clang::FileEntryRef, std::unique_ptr<clang::HeaderMap>>, std::allocator<std::pair<clang::FileEntryRef, std::unique_ptr<clang::HeaderMap>>>>::_Vector_impl" = type { %"struct.std::_Vector_base<std::pair<clang::FileEntryRef, std::unique_ptr<clang::HeaderMap>>, std::allocator<std::pair<clang::FileEntryRef, std::unique_ptr<clang::HeaderMap>>>>::_Vector_impl_data" }
%"struct.std::_Vector_base<std::pair<clang::FileEntryRef, std::unique_ptr<clang::HeaderMap>>, std::allocator<std::pair<clang::FileEntryRef, std::unique_ptr<clang::HeaderMap>>>>::_Vector_impl_data" = type { ptr, ptr, ptr }
%"class.clang::ModuleMap" = type { ptr, ptr, ptr, ptr, ptr, %"class.llvm::SmallVector.33", %"class.clang::CustomizableOptional", %"class.clang::LangOptions", ptr, %"class.llvm::SmallVector.51", %"class.llvm::StringMap.56", %"class.llvm::DenseMap.57", %"class.llvm::SmallVector.60", i32, %"class.llvm::StringMap.65", %"class.llvm::DenseMap.66", %"class.llvm::DenseMap.69", %"class.llvm::DenseMap.69", %"class.llvm::DenseMap.72", i32, [4 x i8], %"class.llvm::DenseMap.75", %"class.llvm::DenseMap.78", %"class.llvm::DenseMap.81", %"class.llvm::DenseMap.84", %"class.llvm::DenseMap.87" }
%"class.llvm::SmallVector.33" = type { %"class.llvm::SmallVectorImpl.34", %"struct.llvm::SmallVectorStorage.37" }
%"class.llvm::SmallVectorImpl.34" = type { %"class.llvm::SmallVectorTemplateBase.35" }
%"class.llvm::SmallVectorTemplateBase.35" = type { %"class.llvm::SmallVectorTemplateCommon.36" }
%"class.llvm::SmallVectorTemplateCommon.36" = type { %"class.llvm::SmallVectorBase" }
%"struct.llvm::SmallVectorStorage.37" = type { [8 x i8] }
%"class.clang::CustomizableOptional" = type { %"class.clang::optional_detail::OptionalStorage" }
%"class.clang::optional_detail::OptionalStorage" = type { %"class.clang::FileMgr::MapEntryOptionalStorage" }
%"class.clang::FileMgr::MapEntryOptionalStorage" = type { %"class.clang::DirectoryEntryRef" }
%"class.clang::DirectoryEntryRef" = type { ptr }
%"class.clang::LangOptions" = type <{ %"class.clang::LangOptionsBase.base", [2 x i8], i32, %"struct.clang::SanitizerSet", i8, [7 x i8], %"class.std::vector.38", %"class.std::vector.38", %"class.std::vector.38", %"class.std::vector.38", %"class.std::vector.38", %"class.clang::ObjCRuntime", i32, %"class.std::__cxx11::basic_string", %"class.std::__cxx11::basic_string", %"class.std::__cxx11::basic_string", %"class.std::__cxx11::basic_string", %"class.std::vector.38", %"struct.clang::CommentOptions", %"class.std::vector.38", %"class.std::map", %"class.std::vector.46", %"class.std::__cxx11::basic_string", %"class.std::__cxx11::basic_string", %"class.std::optional", i8, [3 x i8], i32, i32, [4 x i8], %"class.std::vector.38", %"class.std::__cxx11::basic_string", i8, i8, [6 x i8], %"class.std::__cxx11::basic_string", i8, [7 x i8] }>
%"class.clang::LangOptionsBase.base" = type <{ i64, i64, i64, i64, i64, i64, i64, i64, i64, i64, i64, i64, i64, i64, i64, i64, i64, i64, i64, i64, i64, i64, i64, i64, i64, i16 }>
%"struct.clang::SanitizerSet" = type { %"class.clang::SanitizerMask" }
%"class.clang::SanitizerMask" = type { [2 x i64] }
%"class.clang::ObjCRuntime" = type <{ i32, %"class.llvm::VersionTuple" }>
%"class.llvm::VersionTuple" = type { i64, i64 }
%"struct.clang::CommentOptions" = type <{ %"class.std::vector.38", i8, [7 x i8] }>
%"class.std::map" = type { %"class.std::_Rb_tree" }
%"class.std::_Rb_tree" = type { %"struct.std::_Rb_tree<std::__cxx11::basic_string<char>, std::pair<const std::__cxx11::basic_string<char>, std::__cxx11::basic_string<char>>, std::_Select1st<std::pair<const std::__cxx11::basic_string<char>, std::__cxx11::basic_string<char>>>, std::greater<std::__cxx11::basic_string<char>>>::_Rb_tree_impl" }
%"struct.std::_Rb_tree<std::__cxx11::basic_string<char>, std::pair<const std::__cxx11::basic_string<char>, std::__cxx11::basic_string<char>>, std::_Select1st<std::pair<const std::__cxx11::basic_string<char>, std::__cxx11::basic_string<char>>>, std::greater<std::__cxx11::basic_string<char>>>::_Rb_tree_impl" = type { [8 x i8], %"struct.std::_Rb_tree_header" }
%"struct.std::_Rb_tree_header" = type { %"struct.std::_Rb_tree_node_base", i64 }
%"struct.std::_Rb_tree_node_base" = type { i32, ptr, ptr, ptr }
%"class.std::vector.46" = type { %"struct.std::_Vector_base.47" }
%"struct.std::_Vector_base.47" = type { %"struct.std::_Vector_base<llvm::Triple, std::allocator<llvm::Triple>>::_Vector_impl" }
%"struct.std::_Vector_base<llvm::Triple, std::allocator<llvm::Triple>>::_Vector_impl" = type { %"struct.std::_Vector_base<llvm::Triple, std::allocator<llvm::Triple>>::_Vector_impl_data" }
%"struct.std::_Vector_base<llvm::Triple, std::allocator<llvm::Triple>>::_Vector_impl_data" = type { ptr, ptr, ptr }
%"class.std::optional" = type { %"struct.std::_Optional_base" }
%"struct.std::_Optional_base" = type { %"struct.std::_Optional_payload" }
%"struct.std::_Optional_payload" = type { %"struct.std::_Optional_payload_base.base", [3 x i8] }
%"struct.std::_Optional_payload_base.base" = type <{ %"union.std::_Optional_payload_base<clang::TargetCXXABI::Kind>::_Storage", i8 }>
%"union.std::_Optional_payload_base<clang::TargetCXXABI::Kind>::_Storage" = type { i32 }
%"class.std::vector.38" = type { %"struct.std::_Vector_base.39" }
%"struct.std::_Vector_base.39" = type { %"struct.std::_Vector_base<std::__cxx11::basic_string<char>, std::allocator<std::__cxx11::basic_string<char>>>::_Vector_impl" }
%"struct.std::_Vector_base<std::__cxx11::basic_string<char>, std::allocator<std::__cxx11::basic_string<char>>>::_Vector_impl" = type { %"struct.std::_Vector_base<std::__cxx11::basic_string<char>, std::allocator<std::__cxx11::basic_string<char>>>::_Vector_impl_data" }
%"struct.std::_Vector_base<std::__cxx11::basic_string<char>, std::allocator<std::__cxx11::basic_string<char>>>::_Vector_impl_data" = type { ptr, ptr, ptr }
%"class.llvm::SmallVector.51" = type { %"class.llvm::SmallVectorImpl.52", %"struct.llvm::SmallVectorStorage.55" }
%"class.llvm::SmallVectorImpl.52" = type { %"class.llvm::SmallVectorTemplateBase.53" }
%"class.llvm::SmallVectorTemplateBase.53" = type { %"class.llvm::SmallVectorTemplateCommon.54" }
%"class.llvm::SmallVectorTemplateCommon.54" = type { %"class.llvm::SmallVectorBase" }
%"struct.llvm::SmallVectorStorage.55" = type { [64 x i8] }
%"class.llvm::StringMap.56" = type { %"class.llvm::StringMapImpl" }
%"class.llvm::DenseMap.57" = type <{ ptr, i32, i32, i32, [4 x i8] }>
%"class.llvm::SmallVector.60" = type { %"class.llvm::SmallVectorImpl.61", %"struct.llvm::SmallVectorStorage.64" }
%"class.llvm::SmallVectorImpl.61" = type { %"class.llvm::SmallVectorTemplateBase.62" }
%"class.llvm::SmallVectorTemplateBase.62" = type { %"class.llvm::SmallVectorTemplateCommon.63" }
%"class.llvm::SmallVectorTemplateCommon.63" = type { %"class.llvm::SmallVectorBase" }
%"struct.llvm::SmallVectorStorage.64" = type { [16 x i8] }
%"class.llvm::StringMap.65" = type { %"class.llvm::StringMapImpl" }
%"class.llvm::DenseMap.66" = type <{ ptr, i32, i32, i32, [4 x i8] }>
%"class.llvm::DenseMap.69" = type <{ ptr, i32, i32, i32, [4 x i8] }>
%"class.llvm::DenseMap.72" = type <{ ptr, i32, i32, i32, [4 x i8] }>
%"class.llvm::DenseMap.75" = type <{ ptr, i32, i32, i32, [4 x i8] }>
%"class.llvm::DenseMap.78" = type <{ ptr, i32, i32, i32, [4 x i8] }>
%"class.llvm::DenseMap.81" = type <{ ptr, i32, i32, i32, [4 x i8] }>
%"class.llvm::DenseMap.84" = type <{ ptr, i32, i32, i32, [4 x i8] }>
%"class.llvm::DenseMap.90" = type <{ ptr, i32, i32, i32, [4 x i8] }>
%"class.llvm::DenseMap.87" = type <{ ptr, i32, i32, i32, [4 x i8] }>
%"class.llvm::DenseMap.93" = type <{ ptr, i32, i32, i32, [4 x i8] }>
%"class.llvm::StringSet" = type { %"class.llvm::StringMap.96" }
%"class.llvm::StringMap.96" = type { %"class.llvm::StringMapImpl", %"class.llvm::detail::AllocatorHolder" }

; Function Attrs: mustprogress nounwind uwtable
define linkonce_odr hidden void @_ZN4llvm9StringRefC2ERKNSt7__cxx1112basic_stringIcSt11char_traitsIcESaIcEEE(ptr noundef nonnull align 8 dereferenceable(16) %0, ptr noundef nonnull align 8 dereferenceable(32) %1) unnamed_addr #0 comdat align 2 {
  %3 = alloca ptr, align 8
  %4 = alloca ptr, align 8
  store ptr %0, ptr %3, align 8
  store ptr %1, ptr %4, align 8
  %5 = load ptr, ptr %3, align 8
  %6 = getelementptr inbounds nuw %"class.llvm::StringRef", ptr %5, i32 0, i32 0
  %7 = load ptr, ptr %4, align 8
  %8 = call noundef ptr @_ZNKSt7__cxx1112basic_stringIcSt11char_traitsIcESaIcEE4dataEv(ptr noundef nonnull align 8 dereferenceable(32) %7) #13
  store ptr %8, ptr %6, align 8
  %9 = getelementptr inbounds nuw %"class.llvm::StringRef", ptr %5, i32 0, i32 1
  %10 = load ptr, ptr %4, align 8
  %11 = call noundef i64 @_ZNKSt7__cxx1112basic_stringIcSt11char_traitsIcESaIcEE6lengthEv(ptr noundef nonnull align 8 dereferenceable(32) %10) #13
  store i64 %11, ptr %9, align 8
  ret void
}

; Function Attrs: mustprogress nounwind uwtable
define linkonce_odr hidden { ptr, i64 } @_ZNK5clang12HeaderSearch18getModuleCachePathEv(ptr noundef nonnull align 8 dereferenceable(2192) %0) #0 comdat align 2 {
  %2 = alloca %"class.llvm::StringRef", align 8
  %3 = alloca ptr, align 8
  store ptr %0, ptr %3, align 8
  %4 = load ptr, ptr %3, align 8
  %5 = getelementptr inbounds nuw %"class.clang::HeaderSearch", ptr %4, i32 0, i32 12
  call void @_ZN4llvm9StringRefC2ERKNSt7__cxx1112basic_stringIcSt11char_traitsIcESaIcEEE(ptr noundef nonnull align 8 dereferenceable(16) %2, ptr noundef nonnull align 8 dereferenceable(32) %5)
  %6 = load { ptr, i64 }, ptr %2, align 8
  ret { ptr, i64 } %6
}

; Function Attrs: mustprogress nounwind uwtable
define dso_local void @_ZN5clang12HeaderSearch23getCachedModuleFileNameB5cxx11EN4llvm9StringRefES2_(ptr dead_on_unwind noalias writable sret(%"class.std::__cxx11::basic_string") align 8 %0, ptr noundef nonnull align 8 dereferenceable(2192) %1, ptr %2, i64 %3, ptr %4, i64 %5) #0 align 2 {
  %7 = alloca ptr, align 8
  %8 = alloca %"class.llvm::StringRef", align 8
  %9 = alloca %"class.llvm::StringRef", align 8
  %10 = alloca ptr, align 8
  %11 = alloca %"class.llvm::StringRef", align 8
  %12 = alloca %"class.llvm::StringRef", align 8
  %13 = alloca %"class.llvm::StringRef", align 8
  store ptr %0, ptr %7, align 8
  %14 = getelementptr inbounds nuw { ptr, i64 }, ptr %8, i32 0, i32 0
  store ptr %2, ptr %14, align 8
  %15 = getelementptr inbounds nuw { ptr, i64 }, ptr %8, i32 0, i32 1
  store i64 %3, ptr %15, align 8
  %16 = getelementptr inbounds nuw { ptr, i64 }, ptr %9, i32 0, i32 0
  store ptr %4, ptr %16, align 8
  %17 = getelementptr inbounds nuw { ptr, i64 }, ptr %9, i32 0, i32 1
  store i64 %5, ptr %17, align 8
  store ptr %1, ptr %10, align 8
  %18 = load ptr, ptr %10, align 8
  call void @llvm.memcpy.p0.p0.i64(ptr align 8 %11, ptr align 8 %8, i64 16, i1 false)
  call void @llvm.memcpy.p0.p0.i64(ptr align 8 %12, ptr align 8 %9, i64 16, i1 false)
  %19 = call { ptr, i64 } @_ZNK5clang12HeaderSearch18getModuleCachePathEv(ptr noundef nonnull align 8 dereferenceable(2192) %18)
  %20 = getelementptr inbounds nuw { ptr, i64 }, ptr %13, i32 0, i32 0
  %21 = extractvalue { ptr, i64 } %19, 0
  store ptr %21, ptr %20, align 8
  %22 = getelementptr inbounds nuw { ptr, i64 }, ptr %13, i32 0, i32 1
  %23 = extractvalue { ptr, i64 } %19, 1
  store i64 %23, ptr %22, align 8
  %24 = getelementptr inbounds nuw { ptr, i64 }, ptr %11, i32 0, i32 0
  %25 = load ptr, ptr %24, align 8
  %26 = getelementptr inbounds nuw { ptr, i64 }, ptr %11, i32 0, i32 1
  %27 = load i64, ptr %26, align 8
  %28 = getelementptr inbounds nuw { ptr, i64 }, ptr %12, i32 0, i32 0
  %29 = load ptr, ptr %28, align 8
  %30 = getelementptr inbounds nuw { ptr, i64 }, ptr %12, i32 0, i32 1
  %31 = load i64, ptr %30, align 8
  call void @_ZN5clang12HeaderSearch27getCachedModuleFileNameImplB5cxx11EN4llvm9StringRefES2_S2_(ptr dead_on_unwind writable sret(%"class.std::__cxx11::basic_string") align 8 %0, ptr noundef nonnull align 8 dereferenceable(2192) %18, ptr %25, i64 %27, ptr %29, i64 %31, ptr noundef byval(%"class.llvm::StringRef") align 8 %13)
  ret void
}