; Function Attrs: mustprogress nounwind uwtable
define dso_local void @_ZN5clang12HeaderSearch23getCachedModuleFileNameB5cxx11EN4llvm9StringRefES2_(ptr dead_on_unwind noalias writable sret(%"class.std::__cxx11::basic_string") align 8 %0, ptr noundef nonnull align 8 dereferenceable(2192) %1, ptr %2, i64 %3, ptr %4, i64 %5) local_unnamed_addr #0 align 2 {
  %7 = alloca %"class.llvm::StringRef", align 8
  %8 = getelementptr inbounds nuw i8, ptr %1, i64 312
  %9 = tail call noundef ptr @_ZNKSt7__cxx1112basic_stringIcSt11char_traitsIcESaIcEE4dataEv(ptr noundef nonnull align 8 dereferenceable(32) %8) #22
  %10 = tail call noundef i64 @_ZNKSt7__cxx1112basic_stringIcSt11char_traitsIcESaIcEE6lengthEv(ptr noundef nonnull align 8 dereferenceable(32) %8) #22
  store ptr %9, ptr %7, align 8
  %11 = getelementptr inbounds nuw i8, ptr %7, i64 8
  store i64 %10, ptr %11, align 8
  tail call void @_ZN5clang12HeaderSearch27getCachedModuleFileNameImplB5cxx11EN4llvm9StringRefES2_S2_(ptr dead_on_unwind writable sret(%"class.std::__cxx11::basic_string") align 8 %0, ptr noundef nonnull align 8 dereferenceable(2192) %1, ptr %2, i64 %3, ptr %4, i64 %5, ptr noundef nonnull byval(%"class.llvm::StringRef") align 8 %7)
  ret void
}